; Function Attrs: nounwind uwtable
define internal noalias ptr @seed_src_new(ptr noundef %0, ptr noundef readnone captures(address_is_null) %1, ptr readnone captures(none) %2) #0 {
  %.not = icmp eq ptr %1, null
  br i1 %.not, label %5, label %4

4:                                                ; preds = %3
  tail call void @ERR_new() #5
  tail call void @ERR_set_debug(ptr noundef nonnull @.str, i32 noundef 51, ptr noundef nonnull @__func__.seed_src_new) #5
  tail call void (i32, i32, ptr, ...) @ERR_set_error(i32 noundef 57, i32 noundef 229, ptr noundef null) #5
  br label %10

5:                                                ; preds = %3
  %6 = tail call noalias ptr @CRYPTO_zalloc(i64 noundef 16, ptr noundef nonnull @.str, i32 noundef 55) #5
  %7 = icmp eq ptr %6, null
  br i1 %7, label %10, label %8

8:                                                ; preds = %5
  store ptr %0, ptr %6, align 8, !tbaa !3
  %9 = getelementptr inbounds nuw i8, ptr %6, i64 8
  store i32 0, ptr %9, align 8, !tbaa !9
  br label %10

10:                                               ; preds = %5, %8, %4
  %.0 = phi ptr [ null, %4 ], [ %6, %8 ], [ null, %5 ]
  ret ptr %.0
}